; ModuleID = '47/5118.c'
source_filename = "47/5118.c"
target datalayout = "e-m:e-p270:32:32-p271:32:32-p272:64:64-i64:64-f80:128-n8:16:32:64-S128"
target triple = "x86_64-pc-linux-gnu"

@.str = private unnamed_addr constant [3 x i8] c"%d\00", align 1
@a = common dso_local global [10000 x i32] zeroinitializer, align 16
@p = common dso_local global i32 0, align 4
@.str.1 = private unnamed_addr constant [4 x i8] c" %d\00", align 1

; Function Attrs: noinline nounwind uwtable
define dso_local i32 @main() #0 {
  %1 = alloca i32, align 4
  %2 = alloca i32, align 4
  store i32 0, i32* %1, align 4
  %3 = call i32 (i8*, ...) @__isoc99_scanf(i8* getelementptr inbounds ([3 x i8], [3 x i8]* @.str, i64 0, i64 0), i32* %2)
  %4 = load i32, i32* %2, align 4
  call void @oppo(i32 %4)
  %5 = load i32, i32* %2, align 4
  call void @printa(i32 %5)
  ret i32 0
}

declare dso_local i32 @__isoc99_scanf(i8*, ...) #1

; Function Attrs: noinline nounwind uwtable
define dso_local void @oppo(i32 %0) #0 {
  %2 = alloca i32, align 4
  %3 = alloca i32, align 4
  %4 = alloca i32, align 4
  %5 = alloca i32, align 4
  store i32 %0, i32* %2, align 4
  store i32 0, i32* %3, align 4
  br label %6

6:                                                ; preds = %15, %1
  %7 = load i32, i32* %3, align 4
  %8 = load i32, i32* %2, align 4
  %9 = icmp slt i32 %7, %8
  br i1 %9, label %10, label %18

10:                                               ; preds = %6
  %11 = load i32, i32* %3, align 4
  %12 = sext i32 %11 to i64
  %13 = getelementptr inbounds [10000 x i32], [10000 x i32]* @a, i64 0, i64 %12
  %14 = call i32 (i8*, ...) @__isoc99_scanf(i8* getelementptr inbounds ([3 x i8], [3 x i8]* @.str, i64 0, i64 0), i32* %13)
  br label %15

15:                                               ; preds = %10
  %16 = load i32, i32* %3, align 4
  %17 = add nsw i32 %16, 1
  store i32 %17, i32* %3, align 4
  br label %6

18:                                               ; preds = %6
  store i32 0, i32* %4, align 4
  br label %19

19:                                               ; preds = %53, %18
  %20 = load i32, i32* %4, align 4
  %21 = load i32, i32* %2, align 4
  %22 = icmp slt i32 %20, %21
  br i1 %22, label %23, label %56

23:                                               ; preds = %19
  store i32 0, i32* %5, align 4
  br label %24

24:                                               ; preds = %49, %23
  %25 = load i32, i32* %5, align 4
  %26 = load i32, i32* %2, align 4
  %27 = load i32, i32* %4, align 4
  %28 = sub nsw i32 %26, %27
  %29 = sub nsw i32 %28, 1
  %30 = icmp slt i32 %25, %29
  br i1 %30, label %31, label %52

31:                                               ; preds = %24
  %32 = load i32, i32* %5, align 4
  %33 = sext i32 %32 to i64
  %34 = getelementptr inbounds [10000 x i32], [10000 x i32]* @a, i64 0, i64 %33
  %35 = load i32, i32* %34, align 4
  store i32 %35, i32* @p, align 4
  %36 = load i32, i32* %5, align 4
  %37 = add nsw i32 %36, 1
  %38 = sext i32 %37 to i64
  %39 = getelementptr inbounds [10000 x i32], [10000 x i32]* @a, i64 0, i64 %38
  %40 = load i32, i32* %39, align 4
  %41 = load i32, i32* %5, align 4
  %42 = sext i32 %41 to i64
  %43 = getelementptr inbounds [10000 x i32], [10000 x i32]* @a, i64 0, i64 %42
  store i32 %40, i32* %43, align 4
  %44 = load i32, i32* @p, align 4
  %45 = load i32, i32* %5, align 4
  %46 = add nsw i32 %45, 1
  %47 = sext i32 %46 to i64
  %48 = getelementptr inbounds [10000 x i32], [10000 x i32]* @a, i64 0, i64 %47
  store i32 %44, i32* %48, align 4
  br label %49

49:                                               ; preds = %31
  %50 = load i32, i32* %5, align 4
  %51 = add nsw i32 %50, 1
  store i32 %51, i32* %5, align 4
  br label %24

52:                                               ; preds = %24
  br label %53

53:                                               ; preds = %52
  %54 = load i32, i32* %4, align 4
  %55 = add nsw i32 %54, 1
  store i32 %55, i32* %4, align 4
  br label %19

56:                                               ; preds = %19
  ret void
}

; Function Attrs: noinline nounwind uwtable
define dso_local void @printa(i32 %0) #0 {
  %2 = alloca i32, align 4
  %3 = alloca i32, align 4
  store i32 %0, i32* %2, align 4
  store i32 0, i32* %3, align 4
  br label %4

4:                                                ; preds = %24, %1
  %5 = load i32, i32* %3, align 4
  %6 = load i32, i32* %2, align 4
  %7 = icmp slt i32 %5, %6
  br i1 %7, label %8, label %27

8:                                                ; preds = %4
  %9 = load i32, i32* %3, align 4
  %10 = icmp eq i32 %9, 0
  br i1 %10, label %11, label %17

11:                                               ; preds = %8
  %12 = load i32, i32* %3, align 4
  %13 = sext i32 %12 to i64
  %14 = getelementptr inbounds [10000 x i32], [10000 x i32]* @a, i64 0, i64 %13
  %15 = load i32, i32* %14, align 4
  %16 = call i32 (i8*, ...) @printf(i8* getelementptr inbounds ([3 x i8], [3 x i8]* @.str, i64 0, i64 0), i32 %15)
  br label %23

17:                                               ; preds = %8
  %18 = load i32, i32* %3, align 4
  %19 = sext i32 %18 to i64
  %20 = getelementptr inbounds [10000 x i32], [10000 x i32]* @a, i64 0, i64 %19
  %21 = load i32, i32* %20, align 4
  %22 = call i32 (i8*, ...) @printf(i8* getelementptr inbounds ([4 x i8], [4 x i8]* @.str.1, i64 0, i64 0), i32 %21)
  br label %23

23:                                               ; preds = %17, %11
  br label %24

24:                                               ; preds = %23
  %25 = load i32, i32* %3, align 4
  %26 = add nsw i32 %25, 1
  store i32 %26, i32* %3, align 4
  br label %4

27:                                               ; preds = %4
  ret void
}

declare dso_local i32 @printf(i8*, ...) #1


!llvm.module.flags = !{!0}
!llvm.ident = !{!1}

!0 = !{i32 1, !"wchar_size", i32 4}
!1 = !{!"clang version 10.0.0-4ubuntu1 "}
